target datalayout = "e-m:e-p270:32:32-p271:32:32-p272:64:64-i64:64-i128:128-f80:128-n8:16:32:64-S128"
target triple = "x86_64-pc-linux-gnu"

%struct.Vec_Int_t_ = type { i32, i32, ptr }

@.str.4 = private unnamed_addr constant [2 x i8] c"\0A\00", align 1
@.str.46 = private unnamed_addr constant [3 x i8] c"ab\00", align 1
@.str.47 = private unnamed_addr constant [36 x i8] c"Cannot open file \22%s\22 for writing.\0A\00", align 1
@.str.48 = private unnamed_addr constant [4 x i8] c"\0A.s\00", align 1
@.str.49 = private unnamed_addr constant [4 x i8] c" %d\00", align 1
@.str.50 = private unnamed_addr constant [4 x i8] c"\0A.a\00", align 1

; Function Attrs: inlinehint nounwind uwtable
define internal void @Vec_IntFree(ptr noundef %0) #2 {
  %2 = alloca ptr, align 8
  store ptr %0, ptr %2, align 8, !tbaa !12
  %3 = load ptr, ptr %2, align 8, !tbaa !12
  %4 = getelementptr inbounds nuw %struct.Vec_Int_t_, ptr %3, i32 0, i32 2
  %5 = load ptr, ptr %4, align 8, !tbaa !18
  %6 = icmp ne ptr %5, null
  br i1 %6, label %7, label %13

7:                                                ; preds = %1
  %8 = load ptr, ptr %2, align 8, !tbaa !12
  %9 = getelementptr inbounds nuw %struct.Vec_Int_t_, ptr %8, i32 0, i32 2
  %10 = load ptr, ptr %9, align 8, !tbaa !18
  call void @free(ptr noundef %10) #14
  %11 = load ptr, ptr %2, align 8, !tbaa !12
  %12 = getelementptr inbounds nuw %struct.Vec_Int_t_, ptr %11, i32 0, i32 2
  store ptr null, ptr %12, align 8, !tbaa !18
  br label %14

13:                                               ; preds = %1
  br label %14

14:                                               ; preds = %13, %7
  %15 = load ptr, ptr %2, align 8, !tbaa !12
  %16 = icmp ne ptr %15, null
  br i1 %16, label %17, label %19

17:                                               ; preds = %14
  %18 = load ptr, ptr %2, align 8, !tbaa !12
  call void @free(ptr noundef %18) #14
  store ptr null, ptr %2, align 8, !tbaa !12
  br label %20

19:                                               ; preds = %14
  br label %20

20:                                               ; preds = %19, %17
  ret void
}

; Function Attrs: inlinehint nounwind uwtable
define internal i32 @Vec_IntEntry(ptr noundef %0, i32 noundef %1) #2 {
  %3 = alloca ptr, align 8
  %4 = alloca i32, align 4
  store ptr %0, ptr %3, align 8, !tbaa !12
  store i32 %1, ptr %4, align 4, !tbaa !10
  %5 = load ptr, ptr %3, align 8, !tbaa !12
  %6 = getelementptr inbounds nuw %struct.Vec_Int_t_, ptr %5, i32 0, i32 2
  %7 = load ptr, ptr %6, align 8, !tbaa !18
  %8 = load i32, ptr %4, align 4, !tbaa !10
  %9 = sext i32 %8 to i64
  %10 = getelementptr inbounds i32, ptr %7, i64 %9
  %11 = load i32, ptr %10, align 4, !tbaa !10
  ret i32 %11
}

; Function Attrs: inlinehint nounwind uwtable
define internal i32 @Vec_IntSize(ptr noundef %0) #2 {
  %2 = alloca ptr, align 8
  store ptr %0, ptr %2, align 8, !tbaa !12
  %3 = load ptr, ptr %2, align 8, !tbaa !12
  %4 = getelementptr inbounds nuw %struct.Vec_Int_t_, ptr %3, i32 0, i32 1
  %5 = load i32, ptr %4, align 4, !tbaa !14
  ret i32 %5
}

; Function Attrs: inlinehint nounwind uwtable
define internal ptr @Vec_IntAlloc(i32 noundef %0) #2 {
  %2 = alloca i32, align 4
  %3 = alloca ptr, align 8
  store i32 %0, ptr %2, align 4, !tbaa !10
  call void @llvm.lifetime.start.p0(i64 8, ptr %3) #14
  %4 = call noalias ptr @malloc(i64 noundef 16) #15
  store ptr %4, ptr %3, align 8, !tbaa !12
  %5 = load i32, ptr %2, align 4, !tbaa !10
  %6 = icmp sgt i32 %5, 0
  br i1 %6, label %7, label %11

7:                                                ; preds = %1
  %8 = load i32, ptr %2, align 4, !tbaa !10
  %9 = icmp slt i32 %8, 16
  br i1 %9, label %10, label %11

10:                                               ; preds = %7
  store i32 16, ptr %2, align 4, !tbaa !10
  br label %11

11:                                               ; preds = %10, %7, %1
  %12 = load ptr, ptr %3, align 8, !tbaa !12
  %13 = getelementptr inbounds nuw %struct.Vec_Int_t_, ptr %12, i32 0, i32 1
  store i32 0, ptr %13, align 4, !tbaa !14
  %14 = load i32, ptr %2, align 4, !tbaa !10
  %15 = load ptr, ptr %3, align 8, !tbaa !12
  %16 = getelementptr inbounds nuw %struct.Vec_Int_t_, ptr %15, i32 0, i32 0
  store i32 %14, ptr %16, align 8, !tbaa !17
  %17 = load ptr, ptr %3, align 8, !tbaa !12
  %18 = getelementptr inbounds nuw %struct.Vec_Int_t_, ptr %17, i32 0, i32 0
  %19 = load i32, ptr %18, align 8, !tbaa !17
  %20 = icmp ne i32 %19, 0
  br i1 %20, label %21, label %28

21:                                               ; preds = %11
  %22 = load ptr, ptr %3, align 8, !tbaa !12
  %23 = getelementptr inbounds nuw %struct.Vec_Int_t_, ptr %22, i32 0, i32 0
  %24 = load i32, ptr %23, align 8, !tbaa !17
  %25 = sext i32 %24 to i64
  %26 = mul i64 4, %25
  %27 = call noalias ptr @malloc(i64 noundef %26) #15
  br label %29

28:                                               ; preds = %11
  br label %29

29:                                               ; preds = %28, %21
  %30 = phi ptr [ %27, %21 ], [ null, %28 ]
  %31 = load ptr, ptr %3, align 8, !tbaa !12
  %32 = getelementptr inbounds nuw %struct.Vec_Int_t_, ptr %31, i32 0, i32 2
  store ptr %30, ptr %32, align 8, !tbaa !18
  %33 = load ptr, ptr %3, align 8, !tbaa !12
  call void @llvm.lifetime.end.p0(i64 8, ptr %3) #14
  ret ptr %33
}

; Function Attrs: nounwind uwtable
define void @Gia_ManResubRecordSolution(ptr noundef %0, ptr noundef %1, i32 noundef %2) #0 {
  %4 = alloca ptr, align 8
  %5 = alloca ptr, align 8
  %6 = alloca i32, align 4
  %7 = alloca ptr, align 8
  %8 = alloca i32, align 4
  %9 = alloca ptr, align 8
  %10 = alloca ptr, align 8
  %11 = alloca ptr, align 8
  %12 = alloca i32, align 4
  %13 = alloca i32, align 4
  store ptr %0, ptr %4, align 8, !tbaa !66
  store ptr %1, ptr %5, align 8, !tbaa !12
  store i32 %2, ptr %6, align 4, !tbaa !10
  call void @llvm.lifetime.start.p0(i64 8, ptr %7) #14
  %14 = load ptr, ptr %4, align 8, !tbaa !66
  %15 = call noalias ptr @fopen(ptr noundef %14, ptr noundef @.str.46)
  store ptr %15, ptr %7, align 8, !tbaa !212
  %16 = load ptr, ptr %7, align 8, !tbaa !212
  %17 = icmp eq ptr %16, null
  br i1 %17, label %18, label %21

18:                                               ; preds = %3
  %19 = load ptr, ptr %4, align 8, !tbaa !66
  %20 = call i32 (ptr, ...) @printf(ptr noundef @.str.47, ptr noundef %19)
  store i32 1, ptr %8, align 4
  br label %82

21:                                               ; preds = %3
  call void @llvm.lifetime.start.p0(i64 8, ptr %9) #14
  %22 = call ptr @Vec_IntAlloc(i32 noundef 100)
  store ptr %22, ptr %9, align 8, !tbaa !12
  call void @llvm.lifetime.start.p0(i64 8, ptr %10) #14
  %23 = load ptr, ptr %5, align 8, !tbaa !12
  %24 = load i32, ptr %6, align 4, !tbaa !10
  %25 = load ptr, ptr %5, align 8, !tbaa !12
  %26 = call i32 @Vec_IntSize(ptr noundef %25)
  %27 = sdiv i32 %26, 2
  %28 = load ptr, ptr %9, align 8, !tbaa !12
  %29 = call ptr @Gia_ManResubFindUsed(ptr noundef %23, i32 noundef %24, i32 noundef %27, ptr noundef %28)
  store ptr %29, ptr %10, align 8, !tbaa !12
  call void @llvm.lifetime.start.p0(i64 8, ptr %11) #14
  %30 = load ptr, ptr %5, align 8, !tbaa !12
  %31 = load ptr, ptr %10, align 8, !tbaa !12
  %32 = call ptr @Gia_ManResubRemapSolution(ptr noundef %30, ptr noundef %31)
  store ptr %32, ptr %11, align 8, !tbaa !12
  call void @llvm.lifetime.start.p0(i64 4, ptr %12) #14
  call void @llvm.lifetime.start.p0(i64 4, ptr %13) #14
  %33 = load ptr, ptr %7, align 8, !tbaa !212
  %34 = call i32 (ptr, ptr, ...) @fprintf(ptr noundef %33, ptr noundef @.str.48) #14
  store i32 0, ptr %12, align 4, !tbaa !10
  br label %35

35:                                               ; preds = %50, %21
  %36 = load i32, ptr %12, align 4, !tbaa !10
  %37 = load ptr, ptr %9, align 8, !tbaa !12
  %38 = call i32 @Vec_IntSize(ptr noundef %37)
  %39 = icmp slt i32 %36, %38
  br i1 %39, label %40, label %44

40:                                               ; preds = %35
  %41 = load ptr, ptr %9, align 8, !tbaa !12
  %42 = load i32, ptr %12, align 4, !tbaa !10
  %43 = call i32 @Vec_IntEntry(ptr noundef %41, i32 noundef %42)
  store i32 %43, ptr %13, align 4, !tbaa !10
  br label %44

44:                                               ; preds = %40, %35
  %45 = phi i1 [ false, %35 ], [ true, %40 ]
  br i1 %45, label %46, label %53

46:                                               ; preds = %44
  %47 = load ptr, ptr %7, align 8, !tbaa !212
  %48 = load i32, ptr %13, align 4, !tbaa !10
  %49 = call i32 (ptr, ptr, ...) @fprintf(ptr noundef %47, ptr noundef @.str.49, i32 noundef %48) #14
  br label %50

50:                                               ; preds = %46
  %51 = load i32, ptr %12, align 4, !tbaa !10
  %52 = add nsw i32 %51, 1
  store i32 %52, ptr %12, align 4, !tbaa !10
  br label %35, !llvm.loop !254

53:                                               ; preds = %44
  %54 = load ptr, ptr %7, align 8, !tbaa !212
  %55 = call i32 (ptr, ptr, ...) @fprintf(ptr noundef %54, ptr noundef @.str.50) #14
  store i32 0, ptr %12, align 4, !tbaa !10
  br label %56

56:                                               ; preds = %71, %53
  %57 = load i32, ptr %12, align 4, !tbaa !10
  %58 = load ptr, ptr %11, align 8, !tbaa !12
  %59 = call i32 @Vec_IntSize(ptr noundef %58)
  %60 = icmp slt i32 %57, %59
  br i1 %60, label %61, label %65

61:                                               ; preds = %56
  %62 = load ptr, ptr %11, align 8, !tbaa !12
  %63 = load i32, ptr %12, align 4, !tbaa !10
  %64 = call i32 @Vec_IntEntry(ptr noundef %62, i32 noundef %63)
  store i32 %64, ptr %13, align 4, !tbaa !10
  br label %65

65:                                               ; preds = %61, %56
  %66 = phi i1 [ false, %56 ], [ true, %61 ]
  br i1 %66, label %67, label %74

67:                                               ; preds = %65
  %68 = load ptr, ptr %7, align 8, !tbaa !212
  %69 = load i32, ptr %13, align 4, !tbaa !10
  %70 = call i32 (ptr, ptr, ...) @fprintf(ptr noundef %68, ptr noundef @.str.49, i32 noundef %69) #14
  br label %71

71:                                               ; preds = %67
  %72 = load i32, ptr %12, align 4, !tbaa !10
  %73 = add nsw i32 %72, 1
  store i32 %73, ptr %12, align 4, !tbaa !10
  br label %56, !llvm.loop !255

74:                                               ; preds = %65
  %75 = load ptr, ptr %7, align 8, !tbaa !212
  %76 = call i32 (ptr, ptr, ...) @fprintf(ptr noundef %75, ptr noundef @.str.4) #14
  %77 = load ptr, ptr %7, align 8, !tbaa !212
  %78 = call i32 @fclose(ptr noundef %77)
  %79 = load ptr, ptr %10, align 8, !tbaa !12
  call void @Vec_IntFree(ptr noundef %79)
  %80 = load ptr, ptr %9, align 8, !tbaa !12
  call void @Vec_IntFree(ptr noundef %80)
  %81 = load ptr, ptr %11, align 8, !tbaa !12
  call void @Vec_IntFree(ptr noundef %81)
  call void @llvm.lifetime.end.p0(i64 4, ptr %13) #14
  call void @llvm.lifetime.end.p0(i64 4, ptr %12) #14
  call void @llvm.lifetime.end.p0(i64 8, ptr %11) #14
  call void @llvm.lifetime.end.p0(i64 8, ptr %10) #14
  call void @llvm.lifetime.end.p0(i64 8, ptr %9) #14
  store i32 0, ptr %8, align 4
  br label %82

82:                                               ; preds = %74, %18
  call void @llvm.lifetime.end.p0(i64 8, ptr %7) #14
  %83 = load i32, ptr %8, align 4
  switch i32 %83, label %85 [
    i32 0, label %84
    i32 1, label %84
  ]

84:                                               ; preds = %82, %82
  ret void

85:                                               ; preds = %82
  unreachable
}