; Function Attrs: nounwind uwtable
define void @Gia_ManResubRecordSolution(ptr noundef %0, ptr noundef readonly captures(none) %1, i32 noundef %2) local_unnamed_addr #0 {
  %4 = tail call noalias ptr @fopen(ptr noundef %0, ptr noundef nonnull @.str.46)
  %5 = icmp eq ptr %4, null
  br i1 %5, label %6, label %8

6:                                                ; preds = %3
  %7 = tail call i32 (ptr, ...) @printf(ptr noundef nonnull dereferenceable(1) @.str.47, ptr noundef %0)
  br label %40

8:                                                ; preds = %3
  %9 = tail call noalias dereferenceable_or_null(16) ptr @malloc(i64 noundef 16) #31
  %10 = getelementptr inbounds nuw i8, ptr %9, i64 4
  store i32 0, ptr %10, align 4, !tbaa !28
  store i32 100, ptr %9, align 8, !tbaa !29
  %11 = tail call noalias dereferenceable_or_null(400) ptr @malloc(i64 noundef 400) #31
  %12 = getelementptr inbounds nuw i8, ptr %9, i64 8
  store ptr %11, ptr %12, align 8, !tbaa !30
  %13 = getelementptr i8, ptr %1, i64 4
  %.val33 = load i32, ptr %13, align 4, !tbaa !28
  %14 = sdiv i32 %.val33, 2
  %15 = tail call ptr @Gia_ManResubFindUsed(ptr noundef %1, i32 noundef %2, i32 noundef %14, ptr noundef nonnull %9)
  %16 = tail call ptr @Gia_ManResubRemapSolution(ptr noundef %1, ptr noundef %15)
  %17 = tail call i64 @fwrite(ptr nonnull @.str.48, i64 3, i64 1, ptr nonnull %4)
  %.val32 = load i32, ptr %10, align 4, !tbaa !28
  %18 = icmp sgt i32 %.val32, 0
  br i1 %18, label %.lr.ph, label %.critedge

.lr.ph:                                           ; preds = %8
  %.val35 = load ptr, ptr %12, align 8, !tbaa !30
  %wide.trip.count = zext nneg i32 %.val32 to i64
  br label %19

19:                                               ; preds = %.lr.ph, %19
  %indvars.iv = phi i64 [ 0, %.lr.ph ], [ %indvars.iv.next, %19 ]
  %20 = getelementptr inbounds nuw i32, ptr %.val35, i64 %indvars.iv
  %21 = load i32, ptr %20, align 4, !tbaa !31
  %22 = tail call i32 (ptr, ptr, ...) @fprintf(ptr noundef nonnull %4, ptr noundef nonnull @.str.49, i32 noundef %21) #32
  %indvars.iv.next = add nuw nsw i64 %indvars.iv, 1
  %exitcond.not = icmp eq i64 %indvars.iv.next, %wide.trip.count
  br i1 %exitcond.not, label %.critedge, label %19, !llvm.loop !229

.critedge:                                        ; preds = %19, %8
  %23 = tail call i64 @fwrite(ptr nonnull @.str.50, i64 3, i64 1, ptr nonnull %4)
  %24 = getelementptr i8, ptr %16, i64 4
  %.val = load i32, ptr %24, align 4, !tbaa !28
  %25 = icmp sgt i32 %.val, 0
  br i1 %25, label %.lr.ph42, label %.critedge2

.lr.ph42:                                         ; preds = %.critedge
  %26 = getelementptr i8, ptr %16, i64 8
  %.val34 = load ptr, ptr %26, align 8, !tbaa !30
  %wide.trip.count47 = zext nneg i32 %.val to i64
  br label %27

27:                                               ; preds = %.lr.ph42, %27
  %indvars.iv44 = phi i64 [ 0, %.lr.ph42 ], [ %indvars.iv.next45, %27 ]
  %28 = getelementptr inbounds nuw i32, ptr %.val34, i64 %indvars.iv44
  %29 = load i32, ptr %28, align 4, !tbaa !31
  %30 = tail call i32 (ptr, ptr, ...) @fprintf(ptr noundef nonnull %4, ptr noundef nonnull @.str.49, i32 noundef %29) #32
  %indvars.iv.next45 = add nuw nsw i64 %indvars.iv44, 1
  %exitcond48.not = icmp eq i64 %indvars.iv.next45, %wide.trip.count47
  br i1 %exitcond48.not, label %.critedge2, label %27, !llvm.loop !230

.critedge2:                                       ; preds = %27, %.critedge
  %fputc = tail call i32 @fputc(i32 10, ptr nonnull %4)
  %31 = tail call i32 @fclose(ptr noundef nonnull %4)
  %32 = getelementptr inbounds nuw i8, ptr %15, i64 8
  %33 = load ptr, ptr %32, align 8, !tbaa !30
  %.not.i = icmp eq ptr %33, null
  br i1 %.not.i, label %Vec_IntFree.exit, label %34

34:                                               ; preds = %.critedge2
  tail call void @free(ptr noundef nonnull %33) #32
  br label %Vec_IntFree.exit

Vec_IntFree.exit:                                 ; preds = %.critedge2, %34
  tail call void @free(ptr noundef nonnull %15) #32
  %35 = load ptr, ptr %12, align 8, !tbaa !30
  %.not.i36 = icmp eq ptr %35, null
  br i1 %.not.i36, label %Vec_IntFree.exit37, label %36

36:                                               ; preds = %Vec_IntFree.exit
  tail call void @free(ptr noundef nonnull %35) #32
  br label %Vec_IntFree.exit37

Vec_IntFree.exit37:                               ; preds = %Vec_IntFree.exit, %36
  tail call void @free(ptr noundef nonnull %9) #32
  %37 = getelementptr inbounds nuw i8, ptr %16, i64 8
  %38 = load ptr, ptr %37, align 8, !tbaa !30
  %.not.i38 = icmp eq ptr %38, null
  br i1 %.not.i38, label %Vec_IntFree.exit39, label %39

39:                                               ; preds = %Vec_IntFree.exit37
  tail call void @free(ptr noundef nonnull %38) #32
  br label %Vec_IntFree.exit39

Vec_IntFree.exit39:                               ; preds = %Vec_IntFree.exit37, %39
  tail call void @free(ptr noundef nonnull %16) #32
  br label %40

40:                                               ; preds = %Vec_IntFree.exit39, %6
  ret void
}